; Function Attrs: nofree norecurse nosync nounwind memory(argmem: readwrite) uwtable
define internal void @blend_hardoverlay_12bit(ptr noundef readonly captures(none) %0, i64 noundef %1, ptr noundef readonly captures(none) %2, i64 noundef %3, ptr noundef writeonly captures(none) %4, i64 noundef %5, i64 noundef %6, i64 noundef %7, ptr noundef readonly captures(none) %8, ptr readnone captures(none) %9) #6 {
  %11 = getelementptr inbounds nuw i8, ptr %8, i64 8
  %12 = load double, ptr %11, align 8, !tbaa !70
  %13 = fptrunc nsz double %12 to float
  %14 = lshr i64 %5, 1
  %15 = lshr i64 %1, 1
  %16 = lshr i64 %3, 1
  %17 = icmp sgt i64 %7, 0
  %18 = icmp sgt i64 %6, 0
  %or.cond = and i1 %17, %18
  br i1 %or.cond, label %.preheader.us, label %._crit_edge63

.preheader.us:                                    ; preds = %10, %._crit_edge.us
  %indvars.iv67 = phi i64 [ %indvars.iv.next68, %._crit_edge.us ], [ 0, %10 ]
  %.05261.us = phi ptr [ %46, %._crit_edge.us ], [ %4, %10 ]
  %.05360.us = phi ptr [ %48, %._crit_edge.us ], [ %2, %10 ]
  %.05459.us = phi ptr [ %47, %._crit_edge.us ], [ %0, %10 ]
  br label %19

19:                                               ; preds = %.preheader.us, %._crit_edge
  %indvars.iv = phi i64 [ 0, %.preheader.us ], [ %indvars.iv.next, %._crit_edge ]
  %20 = getelementptr inbounds nuw i16, ptr %.05459.us, i64 %indvars.iv
  %21 = load i16, ptr %20, align 2, !tbaa !85
  %22 = uitofp i16 %21 to float
  %23 = icmp eq i16 %21, 4095
  br i1 %23, label %._crit_edge, label %24

24:                                               ; preds = %19
  %25 = zext i16 %21 to i32
  %26 = getelementptr inbounds nuw i16, ptr %.05360.us, i64 %indvars.iv
  %27 = load i16, ptr %26, align 2, !tbaa !85
  %28 = zext i16 %27 to i32
  %29 = mul nuw nsw i32 %28, 4095
  %30 = shl nuw nsw i32 %25, 1
  %31 = sub nsw i32 8190, %30
  %32 = sdiv i32 %29, %31
  %33 = icmp ugt i16 %21, 2048
  %34 = select i1 %33, i32 %32, i32 0
  %35 = mul nuw nsw i32 %30, %28
  %36 = udiv i32 %35, 4095
  %37 = icmp ult i16 %21, 2049
  %38 = select i1 %37, i32 %36, i32 0
  %39 = add nsw i32 %38, %34
  %spec.select.us = tail call i32 @llvm.smin.i32(i32 %39, i32 4095)
  %40 = sub nsw i32 %spec.select.us, %25
  %41 = sitofp i32 %40 to float
  br label %._crit_edge

._crit_edge:                                      ; preds = %19, %24
  %42 = phi float [ %41, %24 ], [ 0.000000e+00, %19 ]
  %43 = tail call nsz float @llvm.fmuladd.f32(float %42, float %13, float %22)
  %44 = fptoui float %43 to i16
  %45 = getelementptr inbounds nuw i16, ptr %.05261.us, i64 %indvars.iv
  store i16 %44, ptr %45, align 2, !tbaa !85
  %indvars.iv.next = add nuw nsw i64 %indvars.iv, 1
  %exitcond.not = icmp eq i64 %indvars.iv.next, %6
  br i1 %exitcond.not, label %._crit_edge.us, label %19, !llvm.loop !406

._crit_edge.us:                                   ; preds = %._crit_edge
  %46 = getelementptr inbounds nuw i16, ptr %.05261.us, i64 %14
  %47 = getelementptr inbounds nuw i16, ptr %.05459.us, i64 %15
  %48 = getelementptr inbounds nuw i16, ptr %.05360.us, i64 %16
  %indvars.iv.next68 = add nuw nsw i64 %indvars.iv67, 1
  %exitcond70.not = icmp eq i64 %indvars.iv.next68, %7
  br i1 %exitcond70.not, label %._crit_edge63, label %.preheader.us, !llvm.loop !407

._crit_edge63:                                    ; preds = %._crit_edge.us, %10
  ret void
}